; Function Attrs: mustprogress uwtable
define dso_local void @_ZN13cmSourceGroup8AddChildERKS_(ptr noundef nonnull readonly align 8 captures(none) dereferenceable(704) %0, ptr noundef nonnull align 8 dereferenceable(704) %1) local_unnamed_addr #0 align 2 {
  %3 = getelementptr inbounds nuw i8, ptr %0, i64 696
  %4 = load ptr, ptr %3, align 8, !tbaa !30
  %5 = getelementptr inbounds nuw i8, ptr %4, i64 8
  %6 = load ptr, ptr %5, align 8, !tbaa !60
  %7 = getelementptr inbounds nuw i8, ptr %4, i64 16
  %8 = load ptr, ptr %7, align 8, !tbaa !63
  %.not.i = icmp eq ptr %6, %8
  br i1 %.not.i, label %12, label %9

9:                                                ; preds = %2
  tail call void @_ZN13cmSourceGroupC2ERKS_(ptr noundef nonnull align 8 dereferenceable(704) %6, ptr noundef nonnull align 8 dereferenceable(704) %1)
  %10 = load ptr, ptr %5, align 8, !tbaa !60
  %11 = getelementptr inbounds nuw i8, ptr %10, i64 704
  store ptr %11, ptr %5, align 8, !tbaa !60
  br label %_ZNSt6vectorI13cmSourceGroupSaIS0_EE9push_backERKS0_.exit

12:                                               ; preds = %2
  tail call void @_ZNSt6vectorI13cmSourceGroupSaIS0_EE17_M_realloc_insertIJRKS0_EEEvN9__gnu_cxx17__normal_iteratorIPS0_S2_EEDpOT_(ptr noundef nonnull align 8 dereferenceable(24) %4, ptr %6, ptr noundef nonnull align 8 dereferenceable(704) %1)
  br label %_ZNSt6vectorI13cmSourceGroupSaIS0_EE9push_backERKS0_.exit

_ZNSt6vectorI13cmSourceGroupSaIS0_EE9push_backERKS0_.exit: ; preds = %9, %12
  ret void
}